; Function Attrs: nounwind uwtable
define zeroext i8 @l_Std_Time_instDecidableEqPlainDateTime(ptr noundef readonly captures(none) %0, ptr noundef readonly captures(none) %1) local_unnamed_addr #1 {
  %3 = getelementptr inbounds nuw i8, ptr %0, i64 8
  %4 = load ptr, ptr %3, align 8, !tbaa !5
  %5 = getelementptr inbounds nuw i8, ptr %0, i64 16
  %6 = load ptr, ptr %5, align 8, !tbaa !5
  %7 = getelementptr inbounds nuw i8, ptr %1, i64 8
  %8 = load ptr, ptr %7, align 8, !tbaa !5
  %9 = getelementptr inbounds nuw i8, ptr %1, i64 16
  %10 = load ptr, ptr %9, align 8, !tbaa !5
  %11 = tail call zeroext i8 @l___private_Std_Time_Date_PlainDate_0__Std_Time_decEqPlainDate____x40_Std_Time_Date_PlainDate___hyg_428_(ptr noundef %4, ptr noundef %8) #5
  %12 = icmp eq i8 %11, 0
  br i1 %12, label %l___private_Std_Time_DateTime_PlainDateTime_0__Std_Time_decEqPlainDateTime____x40_Std_Time_DateTime_PlainDateTime___hyg_269_.exit, label %13

13:                                               ; preds = %2
  %14 = tail call zeroext i8 @l___private_Std_Time_Time_PlainTime_0__Std_Time_decEqPlainTime____x40_Std_Time_Time_PlainTime___hyg_501_(ptr noundef %6, ptr noundef %10) #5
  br label %l___private_Std_Time_DateTime_PlainDateTime_0__Std_Time_decEqPlainDateTime____x40_Std_Time_DateTime_PlainDateTime___hyg_269_.exit

l___private_Std_Time_DateTime_PlainDateTime_0__Std_Time_decEqPlainDateTime____x40_Std_Time_DateTime_PlainDateTime___hyg_269_.exit: ; preds = %2, %13
  %.0.i = phi i8 [ %14, %13 ], [ 0, %2 ]
  ret i8 %.0.i
}